; Function Attrs: mustprogress uwtable
define void @_ZN15EditPaintPlugin17mouseReleaseEventEP11QMouseEventR9MeshModelP6GLArea(ptr nocapture noundef nonnull align 8 dereferenceable(704) %0, ptr nocapture noundef readonly %1, ptr nocapture noundef nonnull readnone align 8 dereferenceable(1288) %2, ptr noundef %3) unnamed_addr #9 align 2 {
  %5 = getelementptr inbounds i8, ptr %1, i64 16
  %6 = load i16, ptr %5, align 8
  %7 = getelementptr inbounds i8, ptr %1, i64 32
  %8 = load double, ptr %7, align 8
  %9 = fcmp ult double %8, 0.000000e+00
  br i1 %9, label %13, label %10

10:                                               ; preds = %4
  %11 = fadd double %8, 5.000000e-01
  %12 = fptosi double %11 to i32
  br label %_Z6qRoundd.exit.i.i

13:                                               ; preds = %4
  %14 = fadd double %8, -1.000000e+00
  %15 = fptosi double %14 to i32
  %16 = sitofp i32 %15 to double
  %17 = fsub double %8, %16
  %18 = fadd double %17, 5.000000e-01
  %19 = fptosi double %18 to i32
  %20 = add nsw i32 %19, %15
  br label %_Z6qRoundd.exit.i.i

_Z6qRoundd.exit.i.i:                              ; preds = %13, %10
  %21 = phi i32 [ %12, %10 ], [ %20, %13 ]
  %22 = getelementptr inbounds i8, ptr %1, i64 40
  %23 = load double, ptr %22, align 8
  %24 = fcmp ult double %23, 0.000000e+00
  br i1 %24, label %28, label %25

25:                                               ; preds = %_Z6qRoundd.exit.i.i
  %26 = fadd double %23, 5.000000e-01
  %27 = fptosi double %26 to i32
  br label %_ZNK11QMouseEvent3posEv.exit

28:                                               ; preds = %_Z6qRoundd.exit.i.i
  %29 = fadd double %23, -1.000000e+00
  %30 = fptosi double %29 to i32
  %31 = sitofp i32 %30 to double
  %32 = fsub double %23, %31
  %33 = fadd double %32, 5.000000e-01
  %34 = fptosi double %33 to i32
  %35 = add nsw i32 %34, %30
  br label %_ZNK11QMouseEvent3posEv.exit

_ZNK11QMouseEvent3posEv.exit:                     ; preds = %25, %28
  %36 = phi i32 [ %27, %25 ], [ %35, %28 ]
  %37 = getelementptr inbounds i8, ptr %1, i64 20
  %.sroa.0.0.copyload.i = load i32, ptr %37, align 4
  %38 = getelementptr inbounds i8, ptr %1, i64 80
  %39 = load i32, ptr %38, align 8
  %40 = getelementptr inbounds i8, ptr %0, i64 488
  %41 = getelementptr inbounds i8, ptr %0, i64 528
  %42 = load i8, ptr %41, align 8
  %43 = and i8 %42, 1
  %.not.i = icmp eq i8 %43, 0
  br i1 %.not.i, label %_ZN15EditPaintPlugin14pushInputEventEN6QEvent4TypeE6QPoint6QFlagsIN2Qt16KeyboardModifierEEdNS4_11MouseButtonEP6GLArea.exit, label %44

44:                                               ; preds = %_ZNK11QMouseEvent3posEv.exit
  %45 = getelementptr inbounds i8, ptr %0, i64 536
  tail call void @llvm.memcpy.p0.p0.i64(ptr noundef nonnull align 8 dereferenceable(42) %45, ptr noundef nonnull align 8 dereferenceable(42) %40, i64 42, i1 false)
  br label %_ZN15EditPaintPlugin14pushInputEventEN6QEvent4TypeE6QPoint6QFlagsIN2Qt16KeyboardModifierEEdNS4_11MouseButtonEP6GLArea.exit

_ZN15EditPaintPlugin14pushInputEventEN6QEvent4TypeE6QPoint6QFlagsIN2Qt16KeyboardModifierEEdNS4_11MouseButtonEP6GLArea.exit: ; preds = %_ZNK11QMouseEvent3posEv.exit, %44
  %.sroa.2.0.insert.ext.i.i = zext i32 %36 to i64
  %.sroa.2.0.insert.shift.i.i = shl nuw i64 %.sroa.2.0.insert.ext.i.i, 32
  %.sroa.0.0.insert.ext.i.i = zext i32 %21 to i64
  %.sroa.0.0.insert.insert.i.i = or disjoint i64 %.sroa.2.0.insert.shift.i.i, %.sroa.0.0.insert.ext.i.i
  %46 = zext i16 %6 to i32
  %47 = getelementptr inbounds i8, ptr %0, i64 492
  store i32 %46, ptr %47, align 4
  %48 = getelementptr inbounds i8, ptr %0, i64 496
  store i64 %.sroa.0.0.insert.insert.i.i, ptr %48, align 8
  %49 = getelementptr inbounds i8, ptr %3, i64 40
  %50 = load ptr, ptr %49, align 8
  %51 = getelementptr inbounds i8, ptr %50, i64 32
  %52 = load i32, ptr %51, align 4
  %53 = getelementptr inbounds i8, ptr %50, i64 24
  %54 = load i32, ptr %53, align 4
  %55 = add i32 %52, 1
  %56 = add i32 %36, %54
  %57 = sub i32 %55, %56
  %58 = getelementptr inbounds i8, ptr %0, i64 504
  %.sroa.2.0.insert.ext.i = zext i32 %57 to i64
  %.sroa.2.0.insert.shift.i = shl nuw i64 %.sroa.2.0.insert.ext.i, 32
  %.sroa.0.0.insert.insert.i = or disjoint i64 %.sroa.2.0.insert.shift.i, %.sroa.0.0.insert.ext.i.i
  store i64 %.sroa.0.0.insert.insert.i, ptr %58, align 8
  %59 = getelementptr inbounds i8, ptr %0, i64 512
  store i32 %.sroa.0.0.copyload.i, ptr %59, align 8
  store i32 %39, ptr %40, align 8
  %60 = getelementptr inbounds i8, ptr %0, i64 520
  store double 0.000000e+00, ptr %60, align 8
  store i8 0, ptr %41, align 8
  %61 = getelementptr inbounds i8, ptr %0, i64 529
  store i8 1, ptr %61, align 1
  tail call void @_ZN6GLArea24updateAllSiblingsGLAreasEv(ptr noundef nonnull align 8 dereferenceable(1676) %3)
  ret void
}